; Function Attrs: mustprogress uwtable
define hidden void @_ZN4lean15replace_visitor10visit_projERKNS_4exprE(ptr dead_on_unwind noalias writable sret(%"class.lean::expr") align 8 %0, ptr noundef nonnull align 8 dereferenceable(64) %1, ptr noundef nonnull align 8 dereferenceable(8) %2) unnamed_addr #0 align 2 personality ptr @__gxx_personality_v0 {
  %4 = alloca %"class.lean::expr", align 8
  call void @llvm.lifetime.start.p0(i64 8, ptr nonnull %4) #14
  %5 = load ptr, ptr %2, align 8, !tbaa !3
  %6 = getelementptr inbounds nuw i8, ptr %5, i64 24
  %7 = load ptr, ptr %1, align 8, !tbaa !12
  %8 = getelementptr inbounds nuw i8, ptr %7, i64 104
  %9 = load ptr, ptr %8, align 8
  call void %9(ptr dead_on_unwind nonnull writable sret(%"class.lean::expr") align 8 %4, ptr noundef nonnull align 8 dereferenceable(64) %1, ptr noundef nonnull align 8 dereferenceable(8) %6)
  invoke void @_ZN4lean11update_projERKNS_4exprES2_(ptr dead_on_unwind writable sret(%"class.lean::expr") align 8 %0, ptr noundef nonnull align 8 dereferenceable(8) %2, ptr noundef nonnull align 8 dereferenceable(8) %4)
          to label %10 unwind label %24

10:                                               ; preds = %3
  %11 = load ptr, ptr %4, align 8, !tbaa !3
  %12 = ptrtoint ptr %11 to i64
  %13 = and i64 %12, 1
  %.not.i.i = icmp eq i64 %13, 0
  br i1 %.not.i.i, label %14, label %_ZN4lean10object_refD2Ev.exit

14:                                               ; preds = %10
  %15 = load i32, ptr %11, align 4, !tbaa !8
  %16 = icmp sgt i32 %15, 1
  br i1 %16, label %17, label %19, !prof !11

17:                                               ; preds = %14
  %18 = add nsw i32 %15, -1
  store i32 %18, ptr %11, align 4, !tbaa !8
  br label %_ZN4lean10object_refD2Ev.exit

19:                                               ; preds = %14
  %.not.i.i.i = icmp eq i32 %15, 0
  br i1 %.not.i.i.i, label %_ZN4lean10object_refD2Ev.exit, label %20

20:                                               ; preds = %19
  invoke void @lean_dec_ref_cold(ptr noundef nonnull %11)
          to label %_ZN4lean10object_refD2Ev.exit unwind label %21

21:                                               ; preds = %20
  %22 = landingpad { ptr, i32 }
          catch ptr null
  %23 = extractvalue { ptr, i32 } %22, 0
  call void @__clang_call_terminate(ptr %23) #15
  unreachable

_ZN4lean10object_refD2Ev.exit:                    ; preds = %10, %17, %19, %20
  call void @llvm.lifetime.end.p0(i64 8, ptr nonnull %4) #14
  ret void

24:                                               ; preds = %3
  %25 = landingpad { ptr, i32 }
          cleanup
  call void @_ZN4lean10object_refD2Ev(ptr noundef nonnull align 8 dereferenceable(8) %4) #14
  call void @llvm.lifetime.end.p0(i64 8, ptr nonnull %4) #14
  resume { ptr, i32 } %25
}